; Function Attrs: nounwind uwtable
define void @ossl_prov_free_key(ptr noundef readonly captures(none) %0, ptr noundef %1) local_unnamed_addr #1 {
  br label %3

3:                                                ; preds = %5, %2
  %.0.i = phi ptr [ %0, %2 ], [ %6, %5 ]
  %4 = load i32, ptr %.0.i, align 8, !tbaa !3
  switch i32 %4, label %5 [
    i32 0, label %ossl_prov_get_keymgmt_free.exit.thread
    i32 10, label %ossl_prov_get_keymgmt_free.exit
  ]

5:                                                ; preds = %3
  %6 = getelementptr inbounds nuw i8, ptr %.0.i, i64 16
  br label %3, !llvm.loop !12

ossl_prov_get_keymgmt_free.exit:                  ; preds = %3
  %7 = getelementptr i8, ptr %.0.i, i64 8
  %.0.val.i = load ptr, ptr %7, align 8, !tbaa !9
  %.not = icmp eq ptr %.0.val.i, null
  br i1 %.not, label %ossl_prov_get_keymgmt_free.exit.thread, label %8

8:                                                ; preds = %ossl_prov_get_keymgmt_free.exit
  tail call void %.0.val.i(ptr noundef %1) #4
  br label %ossl_prov_get_keymgmt_free.exit.thread

ossl_prov_get_keymgmt_free.exit.thread:           ; preds = %3, %8, %ossl_prov_get_keymgmt_free.exit
  ret void
}